target datalayout = "e-m:e-p270:32:32-p271:32:32-p272:64:64-i64:64-i128:128-f80:128-n8:16:32:64-S128"
target triple = "x86_64-pc-linux-gnu"

%struct.pmix_object_t = type { %union.pthread_mutex_t, ptr, i32, %struct.pmix_tma }
%union.pthread_mutex_t = type { %struct.__pthread_mutex_s }
%struct.__pthread_mutex_s = type { i32, i32, i32, i32, i32, i16, i16, %struct.__pthread_internal_list }
%struct.__pthread_internal_list = type { ptr, ptr }
%struct.pmix_tma = type { ptr, ptr, ptr, ptr, ptr, ptr, ptr, ptr }
%struct.pmix_bfrop_type_info_t = type { %struct.pmix_object_t, i16, ptr, ptr, ptr, ptr, ptr }
%struct.pmix_pointer_array_t = type { %struct.pmix_object_t, i32, i32, i32, i32, i32, ptr, ptr }

; Function Attrs: inlinehint nounwind uwtable
define internal ptr @pmix_pointer_array_get_item(ptr noundef %0, i32 noundef %1) #3 {
  %3 = alloca ptr, align 8
  %4 = alloca ptr, align 8
  %5 = alloca i32, align 4
  %6 = alloca ptr, align 8
  %7 = alloca i32, align 4
  store ptr %0, ptr %4, align 8, !tbaa !3
  store i32 %1, ptr %5, align 4, !tbaa !9
  call void @llvm.lifetime.start.p0(i64 8, ptr %6) #9
  %8 = load i32, ptr %5, align 4, !tbaa !9
  %9 = icmp sgt i32 0, %8
  br i1 %9, label %16, label %10

10:                                               ; preds = %2
  %11 = load ptr, ptr %4, align 8, !tbaa !3
  %12 = getelementptr inbounds nuw %struct.pmix_pointer_array_t, ptr %11, i32 0, i32 3
  %13 = load i32, ptr %12, align 8, !tbaa !22
  %14 = load i32, ptr %5, align 4, !tbaa !9
  %15 = icmp sle i32 %13, %14
  br label %16

16:                                               ; preds = %10, %2
  %17 = phi i1 [ true, %2 ], [ %15, %10 ]
  %18 = xor i1 %17, true
  %19 = xor i1 %18, true
  %20 = zext i1 %19 to i32
  %21 = sext i32 %20 to i64
  %22 = call i64 @llvm.expect.i64(i64 %21, i64 0)
  %23 = icmp ne i64 %22, 0
  br i1 %23, label %24, label %25

24:                                               ; preds = %16
  store ptr null, ptr %3, align 8
  store i32 1, ptr %7, align 4
  br label %34

25:                                               ; preds = %16
  %26 = load ptr, ptr %4, align 8, !tbaa !3
  %27 = getelementptr inbounds nuw %struct.pmix_pointer_array_t, ptr %26, i32 0, i32 7
  %28 = load ptr, ptr %27, align 8, !tbaa !25
  %29 = load i32, ptr %5, align 4, !tbaa !9
  %30 = sext i32 %29 to i64
  %31 = getelementptr inbounds ptr, ptr %28, i64 %30
  %32 = load ptr, ptr %31, align 8, !tbaa !8
  store ptr %32, ptr %6, align 8, !tbaa !8
  %33 = load ptr, ptr %6, align 8, !tbaa !8
  store ptr %33, ptr %3, align 8
  store i32 1, ptr %7, align 4
  br label %34

34:                                               ; preds = %25, %24
  call void @llvm.lifetime.end.p0(i64 8, ptr %6) #9
  %35 = load ptr, ptr %3, align 8
  ret ptr %35
}

; Function Attrs: nounwind uwtable
define i32 @pmix_bfrops_base_pack_nspace(ptr noundef %0, ptr noundef %1, ptr noundef %2, i32 noundef %3, i16 noundef zeroext %4) #0 {
  %6 = alloca i32, align 4
  %7 = alloca ptr, align 8
  %8 = alloca ptr, align 8
  %9 = alloca ptr, align 8
  %10 = alloca i32, align 4
  %11 = alloca i16, align 2
  %12 = alloca ptr, align 8
  %13 = alloca ptr, align 8
  %14 = alloca i32, align 4
  %15 = alloca i32, align 4
  %16 = alloca ptr, align 8
  %17 = alloca i32, align 4
  store ptr %0, ptr %7, align 8, !tbaa !3
  store ptr %1, ptr %8, align 8, !tbaa !8
  store ptr %2, ptr %9, align 8, !tbaa !8
  store i32 %3, ptr %10, align 4, !tbaa !9
  store i16 %4, ptr %11, align 2, !tbaa !11
  call void @llvm.lifetime.start.p0(i64 8, ptr %12) #9
  %18 = load ptr, ptr %9, align 8, !tbaa !8
  store ptr %18, ptr %12, align 8, !tbaa !37
  call void @llvm.lifetime.start.p0(i64 8, ptr %13) #9
  call void @llvm.lifetime.start.p0(i64 4, ptr %14) #9
  call void @llvm.lifetime.start.p0(i64 4, ptr %15) #9
  store i32 0, ptr %14, align 4, !tbaa !9
  br label %19

19:                                               ; preds = %50, %5
  %20 = load i32, ptr %14, align 4, !tbaa !9
  %21 = load i32, ptr %10, align 4, !tbaa !9
  %22 = icmp slt i32 %20, %21
  br i1 %22, label %23, label %53

23:                                               ; preds = %19
  %24 = load ptr, ptr %12, align 8, !tbaa !37
  %25 = load i32, ptr %14, align 4, !tbaa !9
  %26 = sext i32 %25 to i64
  %27 = getelementptr inbounds [256 x i8], ptr %24, i64 %26
  %28 = getelementptr inbounds [256 x i8], ptr %27, i64 0, i64 0
  store ptr %28, ptr %13, align 8, !tbaa !37
  br label %29

29:                                               ; preds = %23
  call void @llvm.lifetime.start.p0(i64 8, ptr %16) #9
  %30 = load ptr, ptr %7, align 8, !tbaa !3
  %31 = call ptr @pmix_pointer_array_get_item(ptr noundef %30, i32 noundef 3)
  store ptr %31, ptr %16, align 8, !tbaa !8
  %32 = load ptr, ptr %16, align 8, !tbaa !8
  %33 = icmp eq ptr null, %32
  br i1 %33, label %34, label %35

34:                                               ; preds = %29
  store i32 -16, ptr %15, align 4, !tbaa !9
  br label %42

35:                                               ; preds = %29
  %36 = load ptr, ptr %16, align 8, !tbaa !8
  %37 = getelementptr inbounds nuw %struct.pmix_bfrop_type_info_t, ptr %36, i32 0, i32 3
  %38 = load ptr, ptr %37, align 8, !tbaa !20
  %39 = load ptr, ptr %7, align 8, !tbaa !3
  %40 = load ptr, ptr %8, align 8, !tbaa !8
  %41 = call i32 %38(ptr noundef %39, ptr noundef %40, ptr noundef %13, i32 noundef 1, i16 noundef zeroext 3)
  store i32 %41, ptr %15, align 4, !tbaa !9
  br label %42

42:                                               ; preds = %35, %34
  call void @llvm.lifetime.end.p0(i64 8, ptr %16) #9
  br label %43

43:                                               ; preds = %42
  br label %44

44:                                               ; preds = %43
  %45 = load i32, ptr %15, align 4, !tbaa !9
  %46 = icmp ne i32 0, %45
  br i1 %46, label %47, label %49

47:                                               ; preds = %44
  %48 = load i32, ptr %15, align 4, !tbaa !9
  store i32 %48, ptr %6, align 4
  store i32 1, ptr %17, align 4
  br label %54

49:                                               ; preds = %44
  br label %50

50:                                               ; preds = %49
  %51 = load i32, ptr %14, align 4, !tbaa !9
  %52 = add nsw i32 %51, 1
  store i32 %52, ptr %14, align 4, !tbaa !9
  br label %19, !llvm.loop !171

53:                                               ; preds = %19
  store i32 0, ptr %6, align 4
  store i32 1, ptr %17, align 4
  br label %54

54:                                               ; preds = %53, %47
  call void @llvm.lifetime.end.p0(i64 4, ptr %15) #9
  call void @llvm.lifetime.end.p0(i64 4, ptr %14) #9
  call void @llvm.lifetime.end.p0(i64 8, ptr %13) #9
  call void @llvm.lifetime.end.p0(i64 8, ptr %12) #9
  %55 = load i32, ptr %6, align 4
  ret i32 %55
}